; Function Attrs: nofree nounwind uwtable
define internal void @log_testinfo(ptr noundef readonly captures(none) %0, ...) unnamed_addr #2 {
  %2 = alloca [1 x %struct.__va_list_tag], align 16
  call void @llvm.lifetime.start.p0(i64 24, ptr nonnull %2) #23
  call void @llvm.va_start.p0(ptr nonnull %2)
  %3 = load ptr, ptr @stdout, align 8, !tbaa !16
  %fputc.i = call i32 @fputc(i32 32, ptr %3)
  %4 = load ptr, ptr @stdout, align 8, !tbaa !16
  %5 = call i32 @vfprintf(ptr noundef %4, ptr noundef %0, ptr noundef nonnull %2) #23
  %6 = load ptr, ptr @stdout, align 8, !tbaa !16
  %7 = call i32 @fflush(ptr noundef %6)
  call void @llvm.va_end.p0(ptr nonnull %2)
  %8 = load i32, ptr @GLOBAL_PRINT_COUNT, align 4, !tbaa !18
  %9 = add nsw i32 %8, 1
  store i32 %9, ptr @GLOBAL_PRINT_COUNT, align 4, !tbaa !18
  call void @llvm.lifetime.end.p0(i64 24, ptr nonnull %2) #23
  ret void
}